target datalayout = "e-m:e-p270:32:32-p271:32:32-p272:64:64-i64:64-i128:128-f80:128-n8:16:32:64-S128"
target triple = "x86_64-pc-linux-gnu"

%struct.tjscalingfactor = type { i32, i32 }

@numScalingFactors = internal global i32 0, align 4
@scalingFactors = internal global ptr null, align 8
@.str.3 = private unnamed_addr constant [6 x i8] c"%d/%d\00", align 1
@subsampName = internal global [7 x ptr] [ptr @.str.93, ptr @.str.94, ptr @.str.95, ptr @.str.96, ptr @.str.97, ptr @.str.98, ptr @.str.99], align 16
@.str.55 = private unnamed_addr constant [52 x i8] c"\0AUSAGE: %s <Input image> <Output image> [options]\0A\0A\00", align 1
@.str.56 = private unnamed_addr constant [80 x i8] c"Input and output images can be in Windows BMP or PBMPLUS (PPM/PGM) format.  If\0A\00", align 1
@.str.57 = private unnamed_addr constant [79 x i8] c"either filename ends in a .jpg extension, then the TurboJPEG API will be used\0A\00", align 1
@.str.58 = private unnamed_addr constant [39 x i8] c"to compress or decompress the image.\0A\0A\00", align 1
@.str.59 = private unnamed_addr constant [64 x i8] c"Compression Options (used if the output image is a JPEG image)\0A\00", align 1
@.str.60 = private unnamed_addr constant [65 x i8] c"--------------------------------------------------------------\0A\0A\00", align 1
@.str.61 = private unnamed_addr constant [80 x i8] c"-subsamp <444|422|420|gray> = Apply this level of chrominance subsampling when\0A\00", align 1
@.str.62 = private unnamed_addr constant [77 x i8] c"     compressing the output image.  The default is to use the same level of\0A\00", align 1
@.str.63 = private unnamed_addr constant [75 x i8] c"     subsampling as in the input image, if the input image is also a JPEG\0A\00", align 1
@.str.64 = private unnamed_addr constant [76 x i8] c"     image, or to use grayscale if the input image is a grayscale non-JPEG\0A\00", align 1
@.str.65 = private unnamed_addr constant [50 x i8] c"     image, or to use %s subsampling otherwise.\0A\0A\00", align 1
@.str.66 = private unnamed_addr constant [69 x i8] c"-q <1-100> = Compress the output image with this JPEG quality level\0A\00", align 1
@.str.67 = private unnamed_addr constant [23 x i8] c"     (default = %d).\0A\0A\00", align 1
@.str.68 = private unnamed_addr constant [65 x i8] c"Decompression Options (used if the input image is a JPEG image)\0A\00", align 1
@.str.69 = private unnamed_addr constant [66 x i8] c"---------------------------------------------------------------\0A\0A\00", align 1
@.str.70 = private unnamed_addr constant [78 x i8] c"-scale M/N = Scale the input image by a factor of M/N when decompressing it.\0A\00", align 1
@.str.71 = private unnamed_addr constant [8 x i8] c"(M/N = \00", align 1
@.str.72 = private unnamed_addr constant [5 x i8] c" or \00", align 1
@.str.73 = private unnamed_addr constant [3 x i8] c", \00", align 1
@.str.74 = private unnamed_addr constant [4 x i8] c"or \00", align 1
@.str.75 = private unnamed_addr constant [4 x i8] c")\0A\0A\00", align 1
@.str.76 = private unnamed_addr constant [69 x i8] c"-hflip, -vflip, -transpose, -transverse, -rot90, -rot180, -rot270 =\0A\00", align 1
@.str.77 = private unnamed_addr constant [76 x i8] c"     Perform one of these lossless transform operations on the input image\0A\00", align 1
@.str.78 = private unnamed_addr constant [73 x i8] c"     prior to decompressing it (these options are mutually exclusive.)\0A\0A\00", align 1
@.str.79 = private unnamed_addr constant [77 x i8] c"-grayscale = Perform lossless grayscale conversion on the input image prior\0A\00", align 1
@.str.80 = private unnamed_addr constant [79 x i8] c"     to decompressing it (can be combined with the other transform operations\0A\00", align 1
@.str.81 = private unnamed_addr constant [15 x i8] c"     above.)\0A\0A\00", align 1
@.str.82 = private unnamed_addr constant [71 x i8] c"-crop WxH+X+Y = Perform lossless cropping on the input image prior to\0A\00", align 1
@.str.83 = private unnamed_addr constant [79 x i8] c"     decompressing it.  X and Y specify the upper left corner of the cropping\0A\00", align 1
@.str.84 = private unnamed_addr constant [79 x i8] c"     region, and W and H specify the width and height of the cropping region.\0A\00", align 1
@.str.85 = private unnamed_addr constant [77 x i8] c"     X and Y must be evenly divible by the MCU block size (8x8 if the input\0A\00", align 1
@.str.86 = private unnamed_addr constant [77 x i8] c"     image was compressed using no subsampling or grayscale, 16x8 if it was\0A\00", align 1
@.str.87 = private unnamed_addr constant [78 x i8] c"     compressed using 4:2:2 subsampling, or 16x16 if it was compressed using\0A\00", align 1
@.str.88 = private unnamed_addr constant [27 x i8] c"     4:2:0 subsampling.)\0A\0A\00", align 1
@.str.89 = private unnamed_addr constant [17 x i8] c"General Options\0A\00", align 1
@.str.90 = private unnamed_addr constant [18 x i8] c"---------------\0A\0A\00", align 1
@.str.91 = private unnamed_addr constant [77 x i8] c"-fastupsample = Use the fastest chrominance upsampling algorithm available\0A\0A\00", align 1
@.str.92 = private unnamed_addr constant [58 x i8] c"-fastdct = Use the fastest DCT/IDCT algorithm available\0A\0A\00", align 1

; Function Attrs: nounwind uwtable
define internal void @usage(ptr noundef %0) #0 {
  %2 = alloca ptr, align 8
  %3 = alloca i32, align 4
  store ptr %0, ptr %2, align 8
  %4 = load ptr, ptr %2, align 8
  %5 = call i32 (ptr, ...) @printf(ptr noundef @.str.55, ptr noundef %4)
  %6 = call i32 (ptr, ...) @printf(ptr noundef @.str.56)
  %7 = call i32 (ptr, ...) @printf(ptr noundef @.str.57)
  %8 = call i32 (ptr, ...) @printf(ptr noundef @.str.58)
  %9 = call i32 (ptr, ...) @printf(ptr noundef @.str.59)
  %10 = call i32 (ptr, ...) @printf(ptr noundef @.str.60)
  %11 = call i32 (ptr, ...) @printf(ptr noundef @.str.61)
  %12 = call i32 (ptr, ...) @printf(ptr noundef @.str.62)
  %13 = call i32 (ptr, ...) @printf(ptr noundef @.str.63)
  %14 = call i32 (ptr, ...) @printf(ptr noundef @.str.64)
  %15 = load ptr, ptr @subsampName, align 16
  %16 = call i32 (ptr, ...) @printf(ptr noundef @.str.65, ptr noundef %15)
  %17 = call i32 (ptr, ...) @printf(ptr noundef @.str.66)
  %18 = call i32 (ptr, ...) @printf(ptr noundef @.str.67, i32 noundef 95)
  %19 = call i32 (ptr, ...) @printf(ptr noundef @.str.68)
  %20 = call i32 (ptr, ...) @printf(ptr noundef @.str.69)
  %21 = call i32 (ptr, ...) @printf(ptr noundef @.str.70)
  %22 = call i32 (ptr, ...) @printf(ptr noundef @.str.71)
  store i32 0, ptr %3, align 4
  br label %23

23:                                               ; preds = %70, %1
  %24 = load i32, ptr %3, align 4
  %25 = load i32, ptr @numScalingFactors, align 4
  %26 = icmp slt i32 %24, %25
  br i1 %26, label %27, label %73

27:                                               ; preds = %23
  %28 = load ptr, ptr @scalingFactors, align 8
  %29 = load i32, ptr %3, align 4
  %30 = sext i32 %29 to i64
  %31 = getelementptr inbounds %struct.tjscalingfactor, ptr %28, i64 %30
  %32 = getelementptr inbounds %struct.tjscalingfactor, ptr %31, i32 0, i32 0
  %33 = load i32, ptr %32, align 4
  %34 = load ptr, ptr @scalingFactors, align 8
  %35 = load i32, ptr %3, align 4
  %36 = sext i32 %35 to i64
  %37 = getelementptr inbounds %struct.tjscalingfactor, ptr %34, i64 %36
  %38 = getelementptr inbounds %struct.tjscalingfactor, ptr %37, i32 0, i32 1
  %39 = load i32, ptr %38, align 4
  %40 = call i32 (ptr, ...) @printf(ptr noundef @.str.3, i32 noundef %33, i32 noundef %39)
  %41 = load i32, ptr @numScalingFactors, align 4
  %42 = icmp eq i32 %41, 2
  br i1 %42, label %43, label %50

43:                                               ; preds = %27
  %44 = load i32, ptr %3, align 4
  %45 = load i32, ptr @numScalingFactors, align 4
  %46 = sub nsw i32 %45, 1
  %47 = icmp ne i32 %44, %46
  br i1 %47, label %48, label %50

48:                                               ; preds = %43
  %49 = call i32 (ptr, ...) @printf(ptr noundef @.str.72)
  br label %69

50:                                               ; preds = %43, %27
  %51 = load i32, ptr @numScalingFactors, align 4
  %52 = icmp sgt i32 %51, 2
  br i1 %52, label %53, label %68

53:                                               ; preds = %50
  %54 = load i32, ptr %3, align 4
  %55 = load i32, ptr @numScalingFactors, align 4
  %56 = sub nsw i32 %55, 1
  %57 = icmp ne i32 %54, %56
  br i1 %57, label %58, label %60

58:                                               ; preds = %53
  %59 = call i32 (ptr, ...) @printf(ptr noundef @.str.73)
  br label %60

60:                                               ; preds = %58, %53
  %61 = load i32, ptr %3, align 4
  %62 = load i32, ptr @numScalingFactors, align 4
  %63 = sub nsw i32 %62, 2
  %64 = icmp eq i32 %61, %63
  br i1 %64, label %65, label %67

65:                                               ; preds = %60
  %66 = call i32 (ptr, ...) @printf(ptr noundef @.str.74)
  br label %67

67:                                               ; preds = %65, %60
  br label %68

68:                                               ; preds = %67, %50
  br label %69

69:                                               ; preds = %68, %48
  br label %70

70:                                               ; preds = %69
  %71 = load i32, ptr %3, align 4
  %72 = add nsw i32 %71, 1
  store i32 %72, ptr %3, align 4
  br label %23, !llvm.loop !8

73:                                               ; preds = %23
  %74 = call i32 (ptr, ...) @printf(ptr noundef @.str.75)
  %75 = call i32 (ptr, ...) @printf(ptr noundef @.str.76)
  %76 = call i32 (ptr, ...) @printf(ptr noundef @.str.77)
  %77 = call i32 (ptr, ...) @printf(ptr noundef @.str.78)
  %78 = call i32 (ptr, ...) @printf(ptr noundef @.str.79)
  %79 = call i32 (ptr, ...) @printf(ptr noundef @.str.80)
  %80 = call i32 (ptr, ...) @printf(ptr noundef @.str.81)
  %81 = call i32 (ptr, ...) @printf(ptr noundef @.str.82)
  %82 = call i32 (ptr, ...) @printf(ptr noundef @.str.83)
  %83 = call i32 (ptr, ...) @printf(ptr noundef @.str.84)
  %84 = call i32 (ptr, ...) @printf(ptr noundef @.str.85)
  %85 = call i32 (ptr, ...) @printf(ptr noundef @.str.86)
  %86 = call i32 (ptr, ...) @printf(ptr noundef @.str.87)
  %87 = call i32 (ptr, ...) @printf(ptr noundef @.str.88)
  %88 = call i32 (ptr, ...) @printf(ptr noundef @.str.89)
  %89 = call i32 (ptr, ...) @printf(ptr noundef @.str.90)
  %90 = call i32 (ptr, ...) @printf(ptr noundef @.str.91)
  %91 = call i32 (ptr, ...) @printf(ptr noundef @.str.92)
  call void @exit(i32 noundef 1) #13
  unreachable
}