; Function Attrs: nofree noreturn nounwind uwtable
define internal fastcc void @usage(ptr noundef %0) unnamed_addr #4 {
  %2 = tail call i32 (ptr, ...) @printf(ptr noundef nonnull dereferenceable(1) @.str.55, ptr noundef %0)
  %puts = tail call i32 @puts(ptr nonnull dereferenceable(1) @str.2)
  %puts9 = tail call i32 @puts(ptr nonnull dereferenceable(1) @str.3)
  %puts10 = tail call i32 @puts(ptr nonnull dereferenceable(1) @str.4)
  %puts11 = tail call i32 @puts(ptr nonnull dereferenceable(1) @str.5)
  %puts12 = tail call i32 @puts(ptr nonnull dereferenceable(1) @str.6)
  %puts13 = tail call i32 @puts(ptr nonnull dereferenceable(1) @str.7)
  %puts14 = tail call i32 @puts(ptr nonnull dereferenceable(1) @str.8)
  %puts15 = tail call i32 @puts(ptr nonnull dereferenceable(1) @str.9)
  %puts16 = tail call i32 @puts(ptr nonnull dereferenceable(1) @str.10)
  %3 = tail call i32 (ptr, ...) @printf(ptr noundef nonnull dereferenceable(1) @.str.65, ptr noundef nonnull @.str.93)
  %puts17 = tail call i32 @puts(ptr nonnull dereferenceable(1) @str.11)
  %4 = tail call i32 (ptr, ...) @printf(ptr noundef nonnull dereferenceable(1) @.str.67, i32 noundef 95)
  %puts18 = tail call i32 @puts(ptr nonnull dereferenceable(1) @str.12)
  %puts19 = tail call i32 @puts(ptr nonnull dereferenceable(1) @str.13)
  %puts20 = tail call i32 @puts(ptr nonnull dereferenceable(1) @str.14)
  %5 = tail call i32 (ptr, ...) @printf(ptr noundef nonnull dereferenceable(1) @.str.71)
  %6 = load i32, ptr @numScalingFactors, align 4
  %7 = icmp sgt i32 %6, 0
  br i1 %7, label %.lr.ph, label %._crit_edge

.lr.ph:                                           ; preds = %1, %29
  %indvars.iv = phi i64 [ %indvars.iv.next, %29 ], [ 0, %1 ]
  %8 = load ptr, ptr @scalingFactors, align 8
  %9 = getelementptr inbounds nuw %struct.tjscalingfactor, ptr %8, i64 %indvars.iv
  %10 = load i32, ptr %9, align 4
  %11 = getelementptr inbounds nuw i8, ptr %9, i64 4
  %12 = load i32, ptr %11, align 4
  %13 = tail call i32 (ptr, ...) @printf(ptr noundef nonnull dereferenceable(1) @.str.3, i32 noundef %10, i32 noundef %12)
  %14 = load i32, ptr @numScalingFactors, align 4
  %15 = icmp ne i32 %14, 2
  %.not = icmp eq i64 %indvars.iv, 1
  %or.cond = or i1 %.not, %15
  br i1 %or.cond, label %16, label %.sink.split

16:                                               ; preds = %.lr.ph
  %17 = icmp sgt i32 %14, 2
  br i1 %17, label %18, label %29

18:                                               ; preds = %16
  %19 = add nsw i32 %14, -1
  %20 = zext nneg i32 %19 to i64
  %.not39 = icmp eq i64 %indvars.iv, %20
  br i1 %.not39, label %23, label %21

21:                                               ; preds = %18
  %22 = tail call i32 (ptr, ...) @printf(ptr noundef nonnull dereferenceable(1) @.str.73)
  %.pre = load i32, ptr @numScalingFactors, align 4
  br label %23

23:                                               ; preds = %21, %18
  %24 = phi i32 [ %.pre, %21 ], [ %14, %18 ]
  %25 = add nsw i32 %24, -2
  %26 = zext i32 %25 to i64
  %27 = icmp eq i64 %indvars.iv, %26
  br i1 %27, label %.sink.split, label %29

.sink.split:                                      ; preds = %23, %.lr.ph
  %.str.72.sink = phi ptr [ @.str.72, %.lr.ph ], [ @.str.74, %23 ]
  %28 = tail call i32 (ptr, ...) @printf(ptr noundef nonnull dereferenceable(1) %.str.72.sink)
  br label %29

29:                                               ; preds = %.sink.split, %23, %16
  %indvars.iv.next = add nuw nsw i64 %indvars.iv, 1
  %30 = load i32, ptr @numScalingFactors, align 4
  %31 = sext i32 %30 to i64
  %32 = icmp slt i64 %indvars.iv.next, %31
  br i1 %32, label %.lr.ph, label %._crit_edge, !llvm.loop !8

._crit_edge:                                      ; preds = %29, %1
  %puts21 = tail call i32 @puts(ptr nonnull dereferenceable(1) @str.15)
  %puts22 = tail call i32 @puts(ptr nonnull dereferenceable(1) @str.16)
  %puts23 = tail call i32 @puts(ptr nonnull dereferenceable(1) @str.17)
  %puts24 = tail call i32 @puts(ptr nonnull dereferenceable(1) @str.18)
  %puts25 = tail call i32 @puts(ptr nonnull dereferenceable(1) @str.19)
  %puts26 = tail call i32 @puts(ptr nonnull dereferenceable(1) @str.20)
  %puts27 = tail call i32 @puts(ptr nonnull dereferenceable(1) @str.21)
  %puts28 = tail call i32 @puts(ptr nonnull dereferenceable(1) @str.22)
  %puts29 = tail call i32 @puts(ptr nonnull dereferenceable(1) @str.23)
  %puts30 = tail call i32 @puts(ptr nonnull dereferenceable(1) @str.24)
  %puts31 = tail call i32 @puts(ptr nonnull dereferenceable(1) @str.25)
  %puts32 = tail call i32 @puts(ptr nonnull dereferenceable(1) @str.26)
  %puts33 = tail call i32 @puts(ptr nonnull dereferenceable(1) @str.27)
  %puts34 = tail call i32 @puts(ptr nonnull dereferenceable(1) @str.28)
  %puts35 = tail call i32 @puts(ptr nonnull dereferenceable(1) @str.29)
  %puts36 = tail call i32 @puts(ptr nonnull dereferenceable(1) @str.30)
  %puts37 = tail call i32 @puts(ptr nonnull dereferenceable(1) @str.31)
  %puts38 = tail call i32 @puts(ptr nonnull dereferenceable(1) @str.32)
  tail call void @exit(i32 noundef 1) #17
  unreachable
}